(lp0
(dp1
S'y'
p2
(lp3
F-4.501002200413495
aF-2.9590021991170943
aF-1.3830022015608847
asS'x'
p4
(lp5
F9.63095853314735
aF10.572958535689395
aF11.53895853535505
asS'id'
p6
I0
sa(dp7
g2
(lp8
F1.271997801028192
aF2.9379977975040674
aF4.41499779978767
asg4
(lp9
F-8.397041493968572
aF-7.372041491093114
aF-6.504041491425596
asg6
I1
sa(dp10
g2
(lp11
F9.620997799560428
aF10.575997800566256
aF11.534997799899429
asg4
(lp12
F5.2149585275910795
aF3.4499585248995572
aF1.6959585209842771
asg6
I4
sa(dp13
g2
(lp14
F8.35299780126661
aF7.470997799187899
aF6.676997799426317
aF5.684997800737619
aF4.571997798979282
aF3.7159977997653186
aF3.2299977992661297
aF3.0539977992884815
aF3.0379978008568287
aF3.085997799411416
aF3.3539977995678782
aF3.8019977998919785
aF4.229997800663114
asg4
(lp15
F5.663958527671639
aF5.164958527253475
aF4.613958525238559
aF3.7949585255701095
aF2.67595852247905
aF1.3229585222434253
aF0.28195851866621524
aF-0.7110414823982865
aF-1.7830414840718731
aF-2.7600414844346233
aF-3.927041486487724
aF-5.217041489027906
aF-6.174041490885429
asg6
I10
sa(dp16
g2
(lp17
F9.413997798692435
aF8.428997800685465
aF6.921997798606753
aF5.399997799191624
aF3.8819978004321456
aF2.2149978023953736
aF1.1979977982118726
aF0.7559978002682328
aF-0.030002200976014137
aF-0.7050021989271045
aF-1.6910021998919547
aF-2.7250021984800696
aF-3.6470021987333894
aF-4.377002200577408
asg4
(lp18
F5.101958525367081
aF4.640958525007591
aF4.227958525763825
aF3.95195852505276
aF3.796958524326328
aF3.9239585243631154
aF4.230958525906317
aF4.416958525311202
aF4.831958526745439
aF5.296958526829258
aF6.123958528507501
aF7.152958530292381
aF8.291958531714045
aF9.40895853220718
asg6
I11
sa(dp19
g2
(lp20
F-4.377002200577408
aF-3.953002198599279
aF-3.7800021995790303
aF-3.5660022031515837
aF-3.542002202011645
aF-3.5520022003911436
aF-3.748002199921757
aF-4.079002199228853
aF-4.6220022002235055
aF-4.8330021989531815
aF-5.343002199195325
aF-6.078002198133618
aF-7.223002199083567
aF-8.262002198956907
aF-9.282002199441195
aF-10.02700219815597
aF-11.168002199847251
asg4
(lp21
F9.40895853220718
aF8.431958531262353
aF7.941958531911951
aF6.965958529384807
aF6.309958529425785
aF5.12395852652844
aF3.366958525031805
aF2.080958523438312
aF0.6159585213754326
aF0.14595852029742673
aF-0.8030414826935157
aF-1.877041482948698
aF-3.2540414860704914
aF-4.255041486758273
aF-5.052041488466784
aF-5.614041488617659
aF-6.312041490455158
asg6
I12
sa(dp22
g2
(lp23
F38.46399779897183
aF38.88499780045822
aF39.55299780052155
aF39.847997799981385
aF40.17799779865891
aF40.33399780001491
aF40.505997801199555
aF40.55699779931456
aF40.52799780014902
aF40.4419977995567
aF40.28899780102074
aF39.96999779948965
aF39.639997800812125
aF39.26299780094996
aF38.943997798953205
aF38.12099780095741
aF37.00299779884517
aF35.780997798312455
aF34.82699780119583
aF33.79799780063331
asg4
(lp24
F35.340958568733186
aF34.56495856854599
aF33.30695856624516
aF32.532958564930595
aF31.59095856361091
aF30.839958562282845
aF29.714958560070954
aF28.61195855936967
aF27.84395855932962
aF27.15695855737431
aF26.196958555781748
aF25.03395855461713
aF24.32295855251141
aF23.569958553183824
aF23.081958551658317
aF22.03295854991302
aF20.963958549080417
aF20.015958546311595
aF19.32695854618214
aF18.601958544692025
asg6
I13
sa(dp25
g2
(lp26
F-11.459002199582756
aF-10.582002202514559
aF-9.624002201016992
aF-8.770002198871225
aF-7.921002201735973
aF-6.915002201683819
aF-6.068002201151103
aF-5.0830021989531815
aF-4.188002200331539
aF-3.201002203859389
aF-2.339002199936658
aF-1.3020021999254823
aF-0.28400219697505236
aF0.6509978002868593
aF1.4229977978393435
aF2.6669977977871895
aF3.6749977990984917
aF4.229997800663114
asg4
(lp27
F-5.303041488863528
aF-4.874041486997157
aF-4.426041487255134
aF-4.031041485723108
aF-3.6690414855256677
aF-3.3230414850986563
aF-3.0390414856374264
aF-2.729041485232301
aF-2.5180414852220565
aF-2.4030414840672165
aF-2.3750414847163484
aF-2.4800414841156453
aF-2.7450414847116917
aF-3.0460414851550013
aF-3.4440414857817814
aF-4.434041486936621
aF-5.468041488726158
aF-6.174041490885429
asg6
I14
sa(dp28
g2
(lp29
F-16.902002199552953
aF-17.252002200577408
aF-17.800002201460302
aF-18.425002200063318
aF-18.72000219952315
aF-18.746002200059593
aF-18.347002200316638
aF-17.72300220001489
aF-16.772002198267728
aF-15.817002199590206
asg4
(lp30
F31.97995856637135
aF32.607958568725735
aF33.75795857002959
aF35.6579585725558
aF37.580958574370015
aF39.55695857858518
aF41.781958580366336
aF43.606958584685344
aF45.507958585978486
aF46.834958588005975
asg6
I16
sa(dp31
g2
(lp32
F-11.168002199847251
aF-11.851002199109644
aF-13.009002200327814
aF-13.79800219880417
aF-14.947002199478447
aF-15.689002198167145
aF-16.680002201814204
aF-17.716002199798822
aF-18.132002199534327
aF-18.752002201974392
aF-19.166002200450748
aF-19.85500220162794
aF-20.10700220009312
aF-20.752002199180424
aF-21.701002199202776
aF-22.219002200756222
aF-23.223002198617905
aF-23.816002199891955
aF-24.824002200271934
aF-25.291002199519426
aF-26.340002198703587
aF-26.92100220033899
aF-27.53700220072642
aF-28.682002199348062
aF-29.151002200786024
aF-30.273002200294286
aF-30.34500219859183
aF-31.96400220040232
aF-32.04200220061466
aF-33.53000219911337
aF-33.616002202034
aF-34.45000220090151
aF-34.526002200786024
aF-35.36900220066309
aF-35.43700220109895
aF-37.03000220283866
aF-37.0480022020638
aF-38.87700220011175
aF-39.331002201419324
aF-39.82900220062584
aF-39.995002201292664
aF-40.94700219947845
aF-41.740002199076116
aF-41.968002202920616
aF-42.92300219926983
aF-43.90300219878554
aF-43.94200220191851
aF-45.70200219983235
aF-45.980002200230956
aF-47.51100220205262
aF-48.100002200808376
aF-49.23900220170617
aF-50.55500220088288
aF-51.043002200778574
aF-52.74700220208615
aF-53.20400219922885
aF-54.30300219822675
aF-54.545002199709415
aF-55.625002201646566
aF-56.25200220011175
aF-56.7250022017397
aF-58.04500220250338
aF-58.53800219995901
aF-58.84800220094621
aF-59.782002199441195
aF-60.30100219929591
asg4
(lp33
F-6.312041490455158
aF-6.714041491039097
aF-7.360041491978336
aF-7.79904149135109
aF-8.439041492762044
aF-8.853041492635384
aF-9.400041493354365
aF-9.972041494445875
aF-10.202041495358571
aF-10.54404149542097
aF-10.773041495820507
aF-11.15304149617441
aF-11.294041497225408
aF-11.65204149595229
aF-12.180041498620994
aF-12.468041498097591
aF-13.02604149770923
aF-13.356041498715058
aF-13.917041500040796
aF-14.17604150029365
aF-14.760041501140222
aF-15.083041501813568
aF-15.42504150129389
aF-16.06204150238773
aF-16.323041504365392
aF-16.947041504550725
aF-16.987041503598448
aF-17.887041505833622
aF-17.931041504838504
aF-18.758041507040616
aF-18.806041506875772
aF-19.26904150680639
aF-19.31204150861595
aF-19.781041508656926
aF-19.818041508784518
aF-20.704041509132367
aF-20.71404151042225
aF-21.73204151005484
aF-21.984041510382667
aF-22.261041511024814
aF-22.35304151137825
aF-22.881041511893272
aF-23.3210415141657
aF-23.447041512234136
aF-23.976041514077224
aF-24.519041515537538
aF-24.5410415136721
aF-25.517041517130565
aF-25.671041516645346
aF-26.519041517516598
aF-26.84604151896201
aF-27.477041518199258
aF-28.206041520403232
aF-28.477041520993225
aF-29.421041522640735
aF-29.675041521259118
aF-30.284041521837935
aF-30.418041522963904
aF-31.017041524057277
aF-31.364041525230277
aF-31.626041523646563
aF-32.358041524654254
aF-32.631041526736226
aF-32.80404152616393
aF-33.3220415271353
aF-33.610041526320856
asg6
I17
sa(dp34
g2
(lp35
F-61.134002201259136
aF-59.67500220006332
aF-58.86800220049918
aF-57.558002199977636
aF-56.45700219972059
aF-55.37800220027566
aF-54.03400219976902
aF-51.86600220063701
aF-50.06600220082328
aF-48.936002200935036
aF-46.81300220126286
aF-44.77100220043212
aF-43.75000219838694
aF-42.793002200778574
aF-41.766002198681235
aF-40.65900219930336
aF-39.695002200081944
aF-37.87300220131874
aF-36.194002200849354
aF-35.289002200588584
aF-34.44700220040977
aF-32.79100220045075
aF-31.10700220055878
aF-29.971002199687064
aF-28.362002200447023
aF-27.727002199273556
aF-27.15600220253691
aF-26.118002200033516
aF-24.62400220008567
aF-24.0360021982342
aF-22.513002201449126
aF-21.583002201281488
aF-20.92500220052898
aF-19.99100220017135
aF-18.953002201393247
aF-18.493002200033516
aF-16.50700220046565
aF-15.161002201028168
aF-14.102002200204879
aF-12.815002202056348
aF-11.68100219964981
asg4
(lp36
F-32.94804152729921
aF-32.14104152575601
aF-31.697041524399538
aF-30.95904152467847
aF-30.34704152191989
aF-29.753041522344574
aF-29.00304152141325
aF-27.809041518485174
aF-26.8110415180563
aF-26.177041516813915
aF-24.995041516027413
aF-23.87604151276173
aF-23.293041513417847
aF-22.79104151285719
aF-22.203041511471383
aF-21.574041509535164
aF-21.072041510953568
aF-20.02804150915472
aF-19.12304150609998
aF-18.615041506127454
aF-18.154041506466456
aF-17.220041504246183
aF-16.29704150330508
aF-15.685041502933018
aF-14.76204150065314
aF-14.428041501203552
aF-14.105041499249637
aF-13.528041500132531
aF-12.698041497380473
aF-12.357041498296894
aF-11.538041495834477
aF-11.001041496754624
aF-10.631041495886166
aF-10.124041494680569
aF-9.541041494579986
aF-9.27804149419535
aF-8.15304149169242
aF-7.398041491047479
aF-6.80304149055155
aF-6.081041488272604
aF-5.427041489281692
asg6
I18
sa(dp37
g2
(lp38
F11.534997799899429
aF10.468997800722718
aF9.561997800134122
aF8.76199779752642
aF8.385997799225152
aF8.09199779946357
asg4
(lp39
F1.6959585209842771
aF1.0579585194354877
aF0.49795852054376155
aF-0.32704148069024086
aF-0.8420414827996865
aF-1.4410414841258898
asg6
I19
sa(dp40
g2
(lp41
F8.09199779946357
aF7.848997799679637
aF7.729997799731791
aF7.744997800793499
aF7.8209978002123535
asg4
(lp42
F-1.4410414841258898
aF-2.0430414851289243
aF-2.8280414855107665
aF-3.4690414868528023
aF-4.101041486486793
asg6
I20
sa(dp43
g2
(lp44
F9.620997799560428
aF9.413997798692435
asg4
(lp45
F5.2149585275910795
aF5.101958525367081
asg6
I25
sa(dp46
g2
(lp47
F1.271997801028192
aF0.6519977990537882
aF0.20099779777228832
aF-0.3780021988786757
aF-1.062002198304981
aF-1.8590022018179297
aF-2.554002198856324
aF-3.3310021995566785
aF-4.315002199728042
aF-5.512002198956907
aF-6.153002198785543
aF-7.598002202343196
aF-9.04300219938159
asg4
(lp48
F-8.397041493968572
aF-7.703041491913609
aF-7.324041490734089
aF-6.98604148987215
aF-6.7310414898674935
aF-6.601041489513591
aF-6.632041490927804
aF-6.7800414909143
aF-7.142041491577402
aF-7.730041491857264
aF-8.088041492796037
aF-8.897041494143195
aF-9.706041493918747
asg6
I26
sa(dp49
g2
(lp50
F-17.80900220014155
aF-19.155002200976014
aF-20.50100220181048
aF-23.119002197869122
aF-25.737002200447023
aF-28.356002199929208
aF-30.974002200178802
aF-33.59200220089406
aF-36.21000219974667
aF-37.59700220217928
aF-40.205002202652395
aF-42.81400219956413
aF-45.42200219910592
aF-48.03100219927728
aF-50.639002199750394
aF-53.24800220038742
aF-55.85600220318884
aF-58.46500220056623
asg4
(lp51
F-14.607041501090862
aF-15.34404150157934
aF-16.08004150353372
aF-17.53304150584154
aF-18.987041506916285
aF-20.440041509689763
aF-21.893041511822958
aF-23.34704151371261
aF-24.800041515030898
aF-25.56904151546769
aF-27.01404151832685
aF-28.458041519741528
aF-29.90304152306635
aF-31.34704152471386
aF-32.79104152723448
aF-34.23604152793996
aF-35.68004153028596
aF-37.12504153163172
asg6
I29
sa(dp52
g2
(lp53
F-9.04300219938159
aF-10.713002202566713
aF-13.327002201229334
aF-15.940002202056348
aF-15.979002199601382
aF-17.80900220014155
asg4
(lp54
F-9.706041493918747
aF-10.644041496096179
aF-12.11204149830155
aF-13.579041500925086
aF-13.602041500620544
aF-14.607041501090862
asg6
I30
sa(dp55
g2
(lp56
F30.99599780002609
aF31.373997800517827
aF31.75699779903516
aF32.16399779962376
aF32.593997799325734
aF32.98399779992178
aF33.28799780039117
aF33.78599779959768
aF34.026997798122466
aF34.182997800409794
aF34.40499780094251
aF34.524997799657285
aF34.55499779852107
aF34.472997799981385
asg4
(lp57
F23.43695855216356
aF23.717958552995697
aF24.089958553086035
aF24.582958553626668
aF25.237958553712815
aF25.93095855670981
aF26.552958555927034
aF27.783958557760343
aF28.507958558911923
aF29.20995856053196
aF30.207958562416025
aF31.15895856334828
aF32.05695856513921
aF33.084958566119894
asg6
I32
sa(dp58
g2
(lp59
F30.059997801668942
aF30.529997800011188
aF30.98799779964611
aF31.578997800592333
aF32.004997801966965
aF32.204997800290585
aF32.472997799981385
aF32.57799780042842
aF32.636997799854726
asg4
(lp60
F25.019958554650657
aF25.63095855526626
aF26.333958555595018
aF27.487958558951505
aF28.63595855922904
aF29.28595856006723
aF30.528958561830223
aF31.373958564945497
aF32.04795856529381
asg6
I33
sa(dp61
g2
(lp62
F8.35299780126661
aF9.603997799102217
aF9.608997800387442
aF11.143997801933438
aF12.112997800577432
aF12.240997798740864
aF13.214997799135745
aF14.188997798599303
aF15.285997800994664
aF16.663997799623758
aF17.033997798804194
aF17.747997798025608
aF18.119997798930854
aF19.13199780229479
aF19.197997799143195
aF20.078997801523656
aF20.079997800290585
aF20.213997799903154
aF20.960997798945755
aF21.286997799761593
aF22.036997800692916
aF22.660997798200697
aF23.10499779880047
aF23.730997799895704
aF25.110997800249606
aF25.994997798930854
asg4
(lp63
F5.663958527671639
aF6.320958527503535
aF6.323958527529612
aF7.172958528622985
aF7.710958530777134
aF7.780958528979681
aF8.320958531927317
aF8.859958532149903
aF9.467958532623015
aF10.230958534171805
aF10.435958534595557
aF10.830958535312675
aF11.03695853537647
aF11.597958535305224
aF11.633958536258433
aF12.12195853726007
aF12.12295853649266
aF12.196958536689635
aF12.610958537785336
aF12.790958537720144
aF13.206958538503386
aF13.551958539173938
aF13.797958537586965
aF14.14495853864355
aF14.908958539017476
aF15.397958540299442
asg6
I34
sa(dp64
g2
(lp65
F6.384997800923884
aF8.508997798897326
aF9.916997799184173
aF12.539997800718993
aF15.16399780055508
aF17.786997801158577
aF20.41099779959768
aF22.975997800007463
aF24.01799779990688
asg4
(lp66
F9.246958532079589
aF10.291958534508012
aF11.095958534628153
aF12.55095853714738
aF14.00595853838604
aF15.460958540788852
aF16.914958542678505
aF18.337958544609137
aF18.903958545764908
asg6
I35
sa(dp67
g2
(lp68
F25.994997798930854
aF27.982997797895223
asg4
(lp69
F15.397958540299442
aF16.44895854272181
asg6
I36
sa(dp70
g2
(lp71
F24.01799779990688
aF25.97399780061096
asg4
(lp72
F18.903958545764908
aF19.981958547374234
asg6
I37
sa(dp73
g2
(lp74
F28.465997799299657
aF27.46299779927358
aF26.539997802581638
aF25.610997798852623
aF24.23099780222401
aF23.60499780252576
aF23.160997800994664
aF22.536997800227255
aF21.786997801158577
aF21.4609978008084
aF20.712997798342258
aF20.579997799824923
aF20.578997800126672
aF19.697997800074518
aF19.63199779903516
aF18.619997800327837
aF18.247997800353914
aF17.533997798804194
aF17.162997799925506
aF15.785997797269374
aF14.68899780092761
aF13.714997800067067
aF12.739997800439596
aF12.612997800577432
aF11.642997800372541
aF10.108997800387442
aF10.10399780003354
aF9.620997799560428
asg4
(lp75
F15.614958541642409
aF15.096958539506886
aF14.585958540672436
aF14.070958539727144
aF13.30695853731595
aF12.959958538005594
aF12.713958537089638
aF12.367958537011873
aF11.952958536334336
aF11.77295853610849
aF11.357958534848876
aF11.283958535816055
aF11.283958535641432
aF10.795958534814417
aF10.758958534046542
aF10.198958532477263
aF9.992958533228375
aF9.597958531812765
aF9.391958532563876
aF8.628958531538956
aF8.021958530182019
aF7.481958529911935
aF6.942958528292365
aF6.8719585296930745
aF6.334958527120762
aF5.484958525979891
aF5.482958526001312
aF5.2149585275910795
asg6
I44
sa(dp76
g2
(lp77
F30.425997798796743
aF28.175997799262404
aF25.552997801452875
aF22.93099780008197
aF20.307997800875455
aF17.68599779997021
aF15.063997799530625
aF13.751997800543904
aF12.440997800324112
aF12.360997800715268
aF11.534997799899429
asg4
(lp78
F12.212958535645157
aF10.962958534422796
aF9.505958532681689
aF8.04895852896152
aF6.591958527220413
aF5.1349585260031745
aF3.678958524891641
aF2.949958522513043
aF2.221958521171473
aF2.176958522759378
aF1.6959585209842771
asg6
I45
sa(dp79
g2
(lp80
F57.79199779825285
aF55.980997800361365
aF54.97699779830873
aF53.37599780037999
aF52.048997800797224
aF49.44099779939279
aF46.83399779768661
aF44.22599779907614
aF43.10699780005962
aF41.7909977985546
aF40.473997799213976
aF38.69999779993668
aF36.37099780049175
aF34.351997800171375
aF33.05099779739976
aF31.949997800402343
aF30.97999779926613
aF29.67299780016765
aF28.492997798603028
aF27.31699779862538
aF26.372997800353914
aF25.39799779932946
aF24.278997800312936
aF23.202997799497098
aF21.901997798588127
aF20.601997797377408
aF19.42099779797718
aF18.22699779877439
aF17.32399779977277
aF16.222997799515724
aF15.141997798811644
aF13.685997799504548
aF12.228997799102217
aF10.772997798398137
aF9.315997797530144
aF7.859997800085694
aF6.402997800614685
aF5.698997799307108
aF4.41499779978767
aF4.229997800663114
asg4
(lp81
F-24.68304152006749
aF-25.70204151974758
aF-26.26604152226355
aF-27.167041522217914
aF-27.911041524261236
aF-29.371041526843328
aF-30.83204152714461
aF-32.29304152872646
aF-32.905041530844755
aF-33.62504153267946
aF-34.34504153369926
aF-35.269041535037104
aF-36.3150415350683
aF-36.99104153725784
aF-37.31804153765552
aF-37.44104153686203
aF-37.51804153621197
aF-37.47004153672606
aF-37.39004153618589
aF-37.21404153632466
aF-37.02104153553955
aF-36.767041536571924
aF-36.342041534837335
aF-35.76504153350834
aF-34.86704153160099
aF-33.719041530857794
aF-32.414041528943926
aF-30.845041526132263
aF-29.470041525084525
aF-27.64104152203072
aF-25.70504151994828
aF-23.09404151455965
aF-20.484041510673705
aF-17.874041507020593
aF-15.264041504182387
aF-12.653041498968378
aF-10.043041494558565
aF-8.789041493437253
aF-6.504041491425596
aF-6.174041490885429
asg6
I47
sa(dp82
g2
(lp83
F4.229997800663114
aF4.41499779978767
aF5.698997799307108
aF6.402997800614685
aF7.859997800085694
aF9.315997797530144
aF10.772997798398137
aF12.228997799102217
aF13.685997799504548
aF15.141997798811644
aF16.222997799515724
aF17.32399779977277
aF18.22699779877439
aF19.42099779797718
aF20.601997797377408
aF21.901997798588127
aF23.202997799497098
aF24.278997800312936
aF25.39799779932946
aF26.372997800353914
aF27.31699779862538
aF28.492997798603028
aF29.67299780016765
aF30.97999779926613
aF31.949997800402343
aF33.05099779739976
aF34.351997800171375
aF36.37099780049175
aF38.69999779993668
aF40.473997799213976
aF43.10699780005962
aF44.22599779907614
aF46.83399779768661
aF49.44099779939279
aF52.048997800797224
aF53.37599780037999
aF54.97699779830873
asg4
(lp84
F-6.174041490885429
aF-6.504041491425596
aF-8.789041493437253
aF-10.043041494558565
aF-12.653041498968378
aF-15.264041504182387
aF-17.874041507020593
aF-20.484041510673705
aF-23.09404151455965
aF-25.70504151994828
aF-27.64104152203072
aF-29.470041525084525
aF-30.845041526132263
aF-32.414041528943926
aF-33.719041530857794
aF-34.86704153160099
aF-35.76504153350834
aF-36.342041534837335
aF-36.767041536571924
aF-37.02104153553955
aF-37.21404153632466
aF-37.39004153618589
aF-37.47004153672606
aF-37.51804153621197
aF-37.44104153686203
aF-37.31804153765552
aF-36.99104153725784
aF-36.3150415350683
aF-35.269041535037104
aF-34.34504153369926
aF-32.905041530844755
aF-32.29304152872646
aF-30.83204152714461
aF-29.371041526843328
aF-27.911041524261236
aF-27.167041522217914
aF-26.26604152226355
asg6
I48
sa(dp85
g2
(lp86
F7.8209978002123535
aF7.931997798848897
aF8.267997802235186
aF8.553997799754143
aF8.89699780009687
aF9.529997800011188
aF9.807997800875455
aF11.24899779818952
aF12.689997798763216
aF14.13099779933691
aF14.901997797191143
aF16.336997799109668
aF17.771997799631208
aF19.206997799221426
aF20.11299779964611
aF20.83199780108407
aF21.626997797749937
aF22.32299780100584
aF23.14499779883772
aF23.85599779849872
aF24.51299779675901
aF25.30699779931456
aF26.16099779913202
aF27.175997799728066
aF28.32799779996276
aF29.480997800361365
aF30.459997798781842
aF31.31999780004844
aF32.06899779988453
aF33.21699779992923
aF34.52999779768288
aF35.49299779860303
aF36.422997801564634
aF37.25799779826775
aF38.24199780030176
aF39.20499779982492
aF39.554997799918056
aF42.18699779966846
aF44.818997798487544
aF47.449997800868005
aF48.57399779884145
aF51.19699780084193
aF53.29999779723585
asg4
(lp87
F-4.101041486486793
aF-4.570041487808339
aF-5.5980414900695905
aF-6.300041490118019
aF-7.013041491212789
aF-8.266041492344812
aF-8.774041493888944
aF-11.405041498015635
aF-14.036041501152795
aF-16.668041505734436
aF-18.08404150826391
aF-20.719041512347758
aF-23.353041516267695
aF-25.98804151971126
aF-27.526041521457955
aF-28.661041523097083
aF-29.708041524048895
aF-30.50604152586311
aF-31.291041527409106
aF-31.90104152809363
aF-32.34704152995255
aF-32.84604152914835
aF-33.29304153152043
aF-33.68704153038561
aF-33.97304153180448
aF-34.099041532725096
aF-34.116041532484815
aF-34.03404153237352
aF-33.93604153255001
aF-33.64904153114185
aF-33.203041530563496
aF-32.820041529252194
aF-32.423041529837064
aF-32.001041529350914
aF-31.50504152913345
aF-31.019041527528316
aF-30.82804152695462
aF-29.387041526206303
aF-27.947041523410007
aF-26.507041521486826
aF-25.883041521301493
aF-24.42604151845444
aF-23.216041516745463
asg6
I50
sa(dp88
g2
(lp89
F53.29999779723585
aF55.52399779902771
asg4
(lp90
F-23.216041516745463
aF-21.9950415143976
asg6
I51
sa(dp91
g2
(lp92
F59.53099779924378
aF58.94399779988453
aF56.321997800376266
aF53.69999780040234
aF53.40199779858813
aF50.776997798122466
aF49.46499779680744
aF48.151997798122466
aF45.526997801382095
aF44.43899780139327
aF41.793997798580676
aF39.895997799001634
aF38.22999779880047
aF35.905997797846794
aF34.13899779971689
aF32.67099779937416
aF31.420997800305486
aF30.0229977988638
aF28.15099780028686
aF27.03399779787287
aF26.291997800581157
aF25.446997799444944
aF23.913997798226774
aF22.471997797954828
aF21.35499779880047
aF20.05399779928848
aF19.244997799862176
aF18.133997797500342
aF16.885997799690813
aF15.91499779978767
aF14.909997799433768
aF13.610997799318284
aF12.783997798804194
aF11.319997798185796
aF11.017997800372541
aF9.571997798979282
aF8.125997797120363
aF6.678997797891498
aF6.309997799806297
aF4.856997800059617
aF3.4039977993816137
aF2.681997798383236
aF2.1569978003390133
aF1.5809977985918522
aF1.271997801028192
asg4
(lp93
F-27.820041524479166
aF-28.14704152487684
aF-29.605041526374407
aF-31.06404152844334
aF-31.229041527723894
aF-32.681041531672236
aF-33.407041532103904
aF-34.13404153159354
aF-35.58604153525084
aF-36.16904153447831
aF-37.5850415363675
aF-38.49604153918335
aF-39.21504153904971
aF-40.07404154143296
aF-40.60104154248256
aF-40.88404154125601
aF-41.016041542752646
aF-41.08004154107766
aF-40.98804154084064
aF-40.892041541519575
aF-40.76604154141387
aF-40.541041540156584
aF-39.968041539308615
aF-39.28704154014122
aF-38.650041538407095
aF-37.79204153770115
aF-37.155041536316276
aF-36.19604153477121
aF-34.90904153266456
aF-33.787041530478746
aF-32.31004152848618
aF-30.161041524959728
aF-28.68304152280325
aF-26.06404152046889
aF-25.516041518072598
aF-22.887041513691656
aF-20.259041511220858
aF-17.631041506421752
aF-16.963041506824084
aF-14.338041501468979
aF-11.713041498092934
aF-10.483041497238446
aF-9.668041495548096
aF-8.792041494394653
aF-8.397041493968572
asg6
I52
sa(dp94
g2
(lp95
F34.48899779934436
aF35.61899780109525
asg4
(lp96
F42.6799585808767
aF40.726958576997276
asg6
I54
sa(dp97
g2
(lp98
F25.856997800059617
aF26.57499780226499
aF27.42299780063331
aF28.037997799459845
aF29.009997800458223
aF30.46199780004099
aF31.914997801650316
aF33.367997800931334
aF34.48899779934436
asg4
(lp99
F58.16195860254811
aF56.86895860079676
aF55.35095859831199
aF54.2499585977057
aF52.493958594452124
aF49.868958591949195
aF47.243958587467205
aF44.618958583218046
aF42.6799585808767
asg6
I55
sa(dp100
g2
(lp101
F35.61899780109525
aF34.48899779934436
aF33.367997800931334
aF31.914997801650316
aF30.46199780004099
aF29.009997800458223
aF28.037997799459845
aF27.42299780063331
asg4
(lp102
F40.726958576997276
aF42.6799585808767
aF44.618958583218046
aF47.243958587467205
aF49.868958591949195
aF52.493958594452124
aF54.2499585977057
aF55.35095859831199
asg6
I56
sa(dp103
g2
(lp104
F27.42299780063331
aF26.57499780226499
aF25.856997800059617
asg4
(lp105
F55.35095859831199
aF56.86895860079676
aF58.16195860254811
asg6
I57
sa(dp106
g2
(lp107
F32.13199780089781
aF30.657997800502926
aF29.187997799832374
aF28.495997799094766
aF27.052997800987214
aF25.609997800551355
aF24.16699780104682
aF24.00599779933691
asg4
(lp108
F38.80295857402962
aF41.39095857809298
aF44.001958583365194
aF45.23095858411398
aF47.8429585879785
aF50.453958592843264
aF53.06595859688241
aF53.357958595326636
asg6
I60
sa(dp109
g2
(lp110
F24.00599779933691
aF22.723997802007943
aF22.454997800290585
asg4
(lp111
F53.357958595326636
aF55.676958599477075
aF56.17095860035624
asg6
I61
sa(dp112
g2
(lp113
F30.82899779966101
aF29.373997800517827
aF27.91799780027941
aF27.58099779812619
aF26.132997800130397
aF24.684997801668942
aF23.236997802741826
aF22.85299780080095
aF22.72399780061096
asg4
(lp114
F38.02495857386384
aF40.62695857818471
aF43.22995858103968
aF43.832958582555875
aF46.45095858670538
aF49.06795858993428
aF51.684958594618365
aF52.37995859468356
aF52.61095859424677
asg6
I62
sa(dp115
g2
(lp116
F22.72399780061096
aF21.393997800070792
aF21.02699779998511
aF20.548997798468918
aF20.154997800011188
aF19.649997800588608
aF19.00199779914692
aF18.352997798938304
aF17.727997801732272
aF16.482997802551836
aF15.677997800055891
aF14.977997799869627
aF14.05099780159071
aF13.49899780144915
asg4
(lp117
F52.61095859424677
aF54.99795859790174
aF55.656958599807695
aF56.45595860108733
aF57.03295860096114
aF57.68395860301098
aF58.357958603533916
aF58.90795860567596
aF59.30495860497467
aF59.80895860673627
aF60.00895860732999
aF60.079958606220316
aF60.03295860608341
aF59.98395860637538
asg6
I63
sa(dp118
g2
(lp119
F4.928997802082449
aF7.281997799407691
aF7.756997799035162
asg4
(lp120
F60.3759586084052
aF61.66295860882383
aF61.91895860998193
asg6
I67
sa(dp121
g2
(lp122
F-15.817002199590206
aF-15.685002201236784
aF-15.116002198774368
aF-14.519002201035619
aF-13.74200219893828
aF-12.366002200637013
aF-11.595002198126167
aF-10.420002199243754
aF-8.166002199519426
aF-5.563002198468894
aF-5.343002199195325
aF-2.730002199765295
aF-0.1170022008009255
aF2.4959977995604277
aF4.661997800692916
aF4.928997802082449
asg4
(lp123
F46.834958588005975
aF47.009958587703295
aF47.75895858980948
aF48.45995859091636
aF49.25995859189425
aF50.48495859338436
aF51.05795859434875
aF51.804958594439086
aF53.05995859671384
aF54.513958598370664
aF54.63595859904308
aF56.09695860079955
aF57.55795860278886
aF59.01795860659331
aF60.2289586077095
aF60.3759586084052
asg6
I68
sa(dp124
g2
(lp125
F7.756997799035162
aF7.281997799407691
aF4.928997802082449
aF4.661997800692916
aF2.4959977995604277
aF-0.1170022008009255
aF-2.730002199765295
aF-5.343002199195325
aF-5.563002198468894
aF-8.166002199519426
aF-10.420002199243754
aF-11.595002198126167
aF-12.366002200637013
aF-13.74200219893828
aF-14.519002201035619
aF-15.116002198774368
aF-15.685002201236784
aF-15.817002199590206
asg4
(lp126
F61.91895860998193
aF61.66295860882383
aF60.3759586084052
aF60.2289586077095
aF59.01795860659331
aF57.55795860278886
aF56.09695860079955
aF54.63595859904308
aF54.513958598370664
aF53.05995859671384
aF51.804958594439086
aF51.05795859434875
aF50.48495859338436
aF49.25995859189425
aF48.45995859091636
aF47.75895858980948
aF47.009958587703295
aF46.834958588005975
asg6
I69
sa(dp127
g2
(lp128
F-0.8280022009275854
aF-0.2210021996870637
aF0.42999779991805553
aF1.1229977989569306
aF1.79299780074507
aF2.5939978007227182
aF3.343997800257057
aF4.3169977981597185
aF5.1179978009313345
aF5.564997799694538
aF6.384997800923884
asg4
(lp129
F10.91595853632316
aF10.40195853356272
aF9.980958534230012
aF9.58095853345003
aF9.337958533898927
aF9.076958532212302
aF8.959958533174358
aF8.922958531416953
aF8.940958532271907
aF9.020958531764336
aF9.246958532079589
asg6
I70
sa(dp130
g2
(lp131
F9.536997801624238
aF7.790997800882906
aF6.602997802197933
aF3.981997800525278
aF1.360997803043574
aF-1.2590021984651685
aF-1.3660022001713514
aF-3.981002198997885
aF-6.272002200130373
aF-7.990002200007439
aF-9.03300220053643
aF-9.74900220008567
aF-10.45000219810754
aF-11.451002199668437
aF-12.270002200268209
aF-12.69500219868496
asg4
(lp132
F58.876958604785614
aF57.916958602843806
aF57.2629586039111
aF55.80295860080514
aF54.34295859851409
aF52.88295859657228
aF52.822958597680554
aF51.35295859409962
aF50.06395859317854
aF49.04395859118085
aF48.36395859031472
aF47.9079585892614
aF47.32995858968934
aF46.32995858776849
aF45.40595858707093
aF44.84095858456567
asg6
I71
sa(dp133
g2
(lp134
F-16.902002199552953
aF-16.74000220000744
aF-16.289002198260278
aF-14.847002200316638
aF-13.405002201441675
aF-12.492002199869603
aF-11.763002200052142
aF-11.033002197742462
aF-10.304002200253308
aF-9.575002201832831
aF-8.74400220066309
aF-7.28800219995901
aF-5.8330021989531815
aF-4.501002200413495
aF-4.377002200577408
asg4
(lp135
F31.97995856637135
aF31.685958566027693
aF30.8669585644966
aF28.244958561379462
aF25.622958557331003
aF23.979958554613404
aF22.667958551784977
aF21.356958550633863
aF20.044958548271097
aF18.732958546315785
aF17.24295854452066
aF14.63095854211133
aF12.019958536024205
aF9.63095853314735
aF9.40895853220718
asg6
I74
sa(dp136
g2
(lp137
F-4.377002200577408
aF-4.501002200413495
aF-5.8330021989531815
aF-7.28800219995901
aF-8.74400220066309
aF-9.575002201832831
aF-10.304002200253308
aF-11.033002197742462
aF-11.763002200052142
aF-12.492002199869603
aF-13.405002201441675
aF-14.847002200316638
aF-16.289002198260278
aF-16.74000220000744
aF-16.902002199552953
asg4
(lp138
F9.40895853220718
aF9.63095853314735
aF12.019958536024205
aF14.63095854211133
aF17.24295854452066
aF18.732958546315785
aF20.044958548271097
aF21.356958550633863
aF22.667958551784977
aF23.979958554613404
aF25.622958557331003
aF28.244958561379462
aF30.8669585644966
aF31.685958566027693
aF31.97995856637135
asg6
I75
sa(dp139
g2
(lp140
F-12.69500219868496
aF-12.94600220117718
aF-13.522002201061696
aF-13.882002199999988
aF-14.292002198286355
aF-14.594002200756222
aF-14.817002199590206
aF-14.954002198763192
aF-14.971002200152725
aF-14.867002199403942
aF-14.66000219900161
aF-14.344002197496593
aF-13.890002199914306
aF-13.72400219924748
asg4
(lp141
F44.84095858456567
aF44.506958584301174
aF43.57795858359896
aF42.84595858142711
aF41.961958580475766
aF41.07395857886877
aF40.14795857970603
aF39.28695857839193
aF38.21995857509319
aF36.909958574105985
aF35.950958573492244
aF35.00195857108338
aF33.937958568916656
aF33.61995856859721
asg6
I78
sa(dp142
g2
(lp143
F-13.72400219924748
aF-12.517002200707793
aF-11.066002198960632
aF-10.806002200581133
aF-9.354002199601382
aF-7.902002197690308
aF-6.99200219893828
aF-5.551002201624215
aF-5.403002201579511
aF-4.651002197992057
aF-3.8980022007599473
aF-2.8470022012479603
aF-2.2100021988153458
aF-1.7580021983012557
aF-1.3830022015608847
asg4
(lp144
F33.61995856859721
aF31.3059585649753
aF28.680958562355954
aF28.209958560124505
aF25.584958556690253
aF22.959958552848548
aF21.316958550654817
aF18.685958547517657
aF18.41495854750974
aF17.033958544488996
aF15.652958543156274
aF13.751958539884072
aF12.713958537089638
aF12.02095853711944
aF11.53895853535505
asg6
I79
sa.